Certificate:
    Data:
        Version: 3 (0x2)
        Serial Number: 10 (0xa)
        Signature Algorithm: ecdsa-with-SHA256
        Issuer: C=PT, ST=Lisbon, L=Lisbon, O=ULHT, OU=DEISI, CN=jqr/emailAddress=jose.rogado@ulusofona.pt
        Validity
            Not Before: Mar  8 13:51:31 2021 GMT
            Not After : Mar  8 13:51:31 2022 GMT
        Subject: C=PT, ST=Lisbon, L=Lisbon, O=ULHT, OU=DEISI, CN=ivandesc
        Subject Public Key Info:
            Public Key Algorithm: id-ecPublicKey
                Public-Key: (256 bit)
                pub:
                    04:a9:cc:c5:35:0f:9a:e3:e6:71:31:bf:3b:0c:30:
                    67:4f:fe:3a:72:4a:fb:39:6c:12:64:e1:1e:d4:bd:
                    33:f4:c9:9d:51:d7:e8:77:00:6e:78:d9:2c:2a:a5:
                    fe:74:55:4c:e9:a0:2e:05:d4:46:f8:3f:dc:5d:24:
                    7e:48:0f:85:98
                ASN1 OID: prime256v1
                NIST CURVE: P-256
        X509v3 extensions:
            X509v3 Subject Key Identifier: 
                22:9D:3C:F5:D7:3E:EC:C5:6D:0C:70:F3:2E:B4:A3:81:E2:58:EE:FC
            X509v3 Basic Constraints: 
                CA:FALSE
            X509v3 Key Usage: 
                Digital Signature, Key Encipherment
            X509v3 Extended Key Usage: 
                TLS Web Server Authentication, TLS Web Client Authentication, E-mail Protection
            X509v3 Subject Alternative Name: 
                DNS:ivandesc, DNS:localhost
    Signature Algorithm: ecdsa-with-SHA256
         30:45:02:20:0e:f2:2e:75:3f:c8:09:ed:24:13:eb:bc:31:cf:
         df:87:e7:5f:db:ad:4f:41:0a:c2:c9:c8:50:1d:2c:52:93:f0:
         02:21:00:88:53:2a:35:09:5c:e0:28:6e:f2:0a:ad:12:33:d4:
         29:f8:ba:7f:08:84:3c:4a:16:79:10:6f:88:98:67:f6:d1
-----BEGIN CERTIFICATE-----
MIICWjCCAgCgAwIBAgIBCjAKBggqhkjOPQQDAjCBhTELMAkGA1UEBhMCUFQxDzAN
BgNVBAgMBkxpc2JvbjEPMA0GA1UEBwwGTGlzYm9uMQ0wCwYDVQQKDARVTEhUMQ4w
DAYDVQQLDAVERUlTSTEMMAoGA1UEAwwDanFyMScwJQYJKoZIhvcNAQkBFhhqb3Nl
LnJvZ2Fkb0B1bHVzb2ZvbmEucHQwHhcNMjEwMzA4MTM1MTMxWhcNMjIwMzA4MTM1
MTMxWjBhMQswCQYDVQQGEwJQVDEPMA0GA1UECAwGTGlzYm9uMQ8wDQYDVQQHDAZM
aXNib24xDTALBgNVBAoMBFVMSFQxDjAMBgNVBAsMBURFSVNJMREwDwYDVQQDDAhp
dmFuZGVzYzBZMBMGByqGSM49AgEGCCqGSM49AwEHA0IABKnMxTUPmuPmcTG/Owww
Z0/+OnJK+zlsEmThHtS9M/TJnVHX6HcAbnjZLCql/nRVTOmgLgXURvg/3F0kfkgP
hZijgYMwgYAwHQYDVR0OBBYEFCKdPPXXPuzFbQxw8y60o4HiWO78MAkGA1UdEwQC
MAAwCwYDVR0PBAQDAgWgMCcGA1UdJQQgMB4GCCsGAQUFBwMBBggrBgEFBQcDAgYI
KwYBBQUHAwQwHgYDVR0RBBcwFYIIaXZhbmRlc2OCCWxvY2FsaG9zdDAKBggqhkjO
PQQDAgNIADBFAiAO8i51P8gJ7SQT67wxz9+H51/brU9BCsLJyFAdLFKT8AIhAIhT
KjUJXOAobvIKrRIz1Cn4un8IhDxKFnkQb4iYZ/bR
-----END CERTIFICATE-----
